target datalayout = "e-m:e-p270:32:32-p271:32:32-p272:64:64-i64:64-i128:128-f80:128-n8:16:32:64-S128"
target triple = "x86_64-pc-linux-gnu"

; Function Attrs: mustprogress uwtable
define void @_ZN7rocksdb21FullFilterBlockReader12KeysMayMatchEPNS_15MultiGetContext5RangeEPNS_23BlockCacheLookupContextERKNS_11ReadOptionsE(ptr noundef nonnull align 8 dereferenceable(57) %0, ptr noundef %1, ptr noundef %2, ptr noundef nonnull align 8 dereferenceable(168) %3) unnamed_addr #5 align 2 {
  %5 = alloca ptr, align 8
  %6 = alloca ptr, align 8
  %7 = alloca ptr, align 8
  %8 = alloca ptr, align 8
  store ptr %0, ptr %5, align 8, !tbaa !59
  store ptr %1, ptr %6, align 8, !tbaa !100
  store ptr %2, ptr %7, align 8, !tbaa !78
  store ptr %3, ptr %8, align 8, !tbaa !80
  %9 = load ptr, ptr %5, align 8
  %10 = call noundef zeroext i1 @_ZNK7rocksdb23FilterBlockReaderCommonINS_21ParsedFullFilterBlockEE19whole_key_filteringEv(ptr noundef nonnull align 8 dereferenceable(57) %9)
  br i1 %10, label %12, label %11

11:                                               ; preds = %4
  br label %16

12:                                               ; preds = %4
  %13 = load ptr, ptr %6, align 8, !tbaa !100
  %14 = load ptr, ptr %7, align 8, !tbaa !78
  %15 = load ptr, ptr %8, align 8, !tbaa !80
  call void @_ZNK7rocksdb21FullFilterBlockReader8MayMatchEPNS_15MultiGetContext5RangeEPKNS_14SliceTransformEPNS_23BlockCacheLookupContextERKNS_11ReadOptionsE(ptr noundef nonnull align 8 dereferenceable(57) %9, ptr noundef %13, ptr noundef null, ptr noundef %14, ptr noundef nonnull align 8 dereferenceable(168) %15)
  br label %16

16:                                               ; preds = %12, %11
  ret void
}