; Function Attrs: mustprogress uwtable
define void @_ZN7rocksdb21FullFilterBlockReader12KeysMayMatchEPNS_15MultiGetContext5RangeEPNS_23BlockCacheLookupContextERKNS_11ReadOptionsE(ptr noundef nonnull align 8 dereferenceable(57) %0, ptr noundef captures(none) %1, ptr noundef %2, ptr noundef nonnull align 8 dereferenceable(168) %3) unnamed_addr #4 align 2 {
  %5 = tail call noundef zeroext i1 @_ZNK7rocksdb23FilterBlockReaderCommonINS_21ParsedFullFilterBlockEE19whole_key_filteringEv(ptr noundef nonnull align 8 dereferenceable(57) %0)
  br i1 %5, label %6, label %7

6:                                                ; preds = %4
  tail call void @_ZNK7rocksdb21FullFilterBlockReader8MayMatchEPNS_15MultiGetContext5RangeEPKNS_14SliceTransformEPNS_23BlockCacheLookupContextERKNS_11ReadOptionsE(ptr noundef nonnull align 8 dereferenceable(57) %0, ptr noundef %1, ptr noundef null, ptr noundef %2, ptr noundef nonnull align 8 dereferenceable(168) %3)
  br label %7

7:                                                ; preds = %4, %6
  ret void
}